target datalayout = "e-m:e-p270:32:32-p271:32:32-p272:64:64-i64:64-i128:128-f80:128-n8:16:32:64-S128"
target triple = "x86_64-pc-linux-gnu"

; Function Attrs: mustprogress nounwind uwtable
define noundef ptr @_ZN5boost10filesystem6detail11dir_itr_impnwEmm(i64 noundef %0, i64 noundef %1) #2 align 2 {
  %3 = alloca i64, align 8
  %4 = alloca i64, align 8
  %5 = alloca i64, align 8
  %6 = alloca ptr, align 8
  store i64 %0, ptr %3, align 8, !tbaa !27
  store i64 %1, ptr %4, align 8, !tbaa !27
  %7 = load i64, ptr %4, align 8, !tbaa !27
  %8 = icmp ugt i64 %7, 0
  br i1 %8, label %9, label %14

9:                                                ; preds = %2
  %10 = load i64, ptr %3, align 8, !tbaa !27
  %11 = add i64 %10, 16
  %12 = sub i64 %11, 1
  %13 = and i64 %12, -16
  store i64 %13, ptr %3, align 8, !tbaa !27
  br label %14

14:                                               ; preds = %9, %2
  call void @llvm.lifetime.start.p0(i64 8, ptr %5) #23
  %15 = load i64, ptr %3, align 8, !tbaa !27
  %16 = load i64, ptr %4, align 8, !tbaa !27
  %17 = add i64 %15, %16
  store i64 %17, ptr %5, align 8, !tbaa !27
  call void @llvm.lifetime.start.p0(i64 8, ptr %6) #23
  %18 = load i64, ptr %5, align 8, !tbaa !27
  %19 = call noalias ptr @malloc(i64 noundef %18) #27
  store ptr %19, ptr %6, align 8, !tbaa !3
  %20 = load ptr, ptr %6, align 8, !tbaa !3
  %21 = icmp ne ptr %20, null
  %22 = zext i1 %21 to i64
  %23 = call i64 @llvm.expect.i64(i64 %22, i64 1)
  %24 = icmp ne i64 %23, 0
  br i1 %24, label %25, label %28

25:                                               ; preds = %14
  %26 = load ptr, ptr %6, align 8, !tbaa !3
  %27 = load i64, ptr %5, align 8, !tbaa !27
  call void @llvm.memset.p0.i64(ptr align 1 %26, i8 0, i64 %27, i1 false)
  br label %28

28:                                               ; preds = %25, %14
  %29 = load ptr, ptr %6, align 8, !tbaa !3
  call void @llvm.lifetime.end.p0(i64 8, ptr %6) #23
  call void @llvm.lifetime.end.p0(i64 8, ptr %5) #23
  ret ptr %29
}