; Function Attrs: mustprogress nofree nounwind willreturn memory(inaccessiblemem: readwrite) uwtable
define noalias noundef ptr @_ZN5boost10filesystem6detail11dir_itr_impnwEmm(i64 noundef %0, i64 noundef %1) local_unnamed_addr #10 align 2 {
  %.not = icmp eq i64 %1, 0
  %3 = add i64 %0, 15
  %4 = and i64 %3, -16
  %.0 = select i1 %.not, i64 %0, i64 %4
  %5 = add i64 %.0, %1
  %calloc = tail call ptr @calloc(i64 1, i64 %5)
  ret ptr %calloc
}